; Function Attrs: nounwind uwtable
define ptr @wolfSSL_new(ptr noundef %0) local_unnamed_addr #0 {
  %2 = icmp eq ptr %0, null
  br i1 %2, label %12, label %3

3:                                                ; preds = %1
  %4 = tail call ptr @wolfSSL_Malloc(i64 noundef 1232) #22
  %5 = icmp eq ptr %4, null
  br i1 %5, label %12, label %6

6:                                                ; preds = %3
  %7 = tail call i32 @InitSSL(ptr noundef nonnull %4, ptr noundef nonnull %0, i32 noundef 0) #22
  %8 = icmp slt i32 %7, 0
  br i1 %8, label %9, label %12

9:                                                ; preds = %6
  %10 = getelementptr inbounds nuw i8, ptr %0, i64 160
  %11 = load ptr, ptr %10, align 8, !tbaa !116
  tail call void @FreeSSL(ptr noundef nonnull %4, ptr noundef %11) #22
  br label %12

12:                                               ; preds = %9, %3, %6, %1
  %.09 = phi ptr [ null, %1 ], [ null, %3 ], [ null, %9 ], [ %4, %6 ]
  ret ptr %.09
}